target datalayout = "e-m:e-p270:32:32-p271:32:32-p272:64:64-i64:64-i128:128-f80:128-n8:16:32:64-S128"
target triple = "x86_64-pc-linux-gnu"

%"class.Imf_3_4::Context" = type { %"class.std::shared_ptr" }
%"class.std::shared_ptr" = type { %"class.std::__shared_ptr" }
%"class.std::__shared_ptr" = type { ptr, %"class.std::__shared_count" }
%"class.std::__shared_count" = type { ptr }
%"struct.std::_Rb_tree_header" = type { %"struct.std::_Rb_tree_node_base", i64 }
%"struct.std::_Rb_tree_node_base" = type { i32, ptr, ptr, ptr }
%"class.Imf_3_4::InputFile" = type { %"class.Imf_3_4::Context", %"class.std::shared_ptr.16" }
%"class.std::shared_ptr.16" = type { %"class.std::__shared_ptr.17" }
%"class.std::__shared_ptr.17" = type { ptr, %"class.std::__shared_count" }
%"class.Imf_3_4::Header" = type <{ %"class.std::map", i8, [7 x i8] }>
%"class.std::map" = type { %"class.std::_Rb_tree" }
%"class.std::_Rb_tree" = type { %"struct.std::_Rb_tree<Imf_3_4::Name, std::pair<const Imf_3_4::Name, Imf_3_4::Attribute *>, std::_Select1st<std::pair<const Imf_3_4::Name, Imf_3_4::Attribute *>>, std::less<Imf_3_4::Name>>::_Rb_tree_impl" }
%"struct.std::_Rb_tree<Imf_3_4::Name, std::pair<const Imf_3_4::Name, Imf_3_4::Attribute *>, std::_Select1st<std::pair<const Imf_3_4::Name, Imf_3_4::Attribute *>>, std::less<Imf_3_4::Name>>::_Rb_tree_impl" = type { [8 x i8], %"struct.std::_Rb_tree_header" }
%"class.Imf_3_4::GenericOutputFile" = type { ptr }
%"class.Imf_3_4::OutputFile" = type { %"class.Imf_3_4::GenericOutputFile", ptr }

; Function Attrs: mustprogress uwtable
define dso_local void @_Z14multithreadingv() #6 personality ptr @__gxx_personality_v0 {
  %1 = alloca [1 x i8], align 1
  %2 = alloca %"class.Imf_3_4::InputFile", align 8
  %3 = alloca %"class.Imf_3_4::Header", align 8
  %4 = alloca ptr, align 8
  %5 = alloca i32, align 4
  %6 = alloca %"class.Imf_3_4::OutputFile", align 8
  call void @llvm.lifetime.start.p0(i64 1, ptr %1) #3
  call void @llvm.memset.p0.i64(ptr align 1 %1, i8 0, i64 1, i1 false)
  call void @_ZN7Imf_3_420setGlobalThreadCountEi(i32 noundef 4)
  call void @llvm.lifetime.start.p0(i64 32, ptr %2) #3
  %7 = getelementptr inbounds [1 x i8], ptr %1, i64 0, i64 0
  %8 = call noundef i32 @_ZN7Imf_3_417globalThreadCountEv()
  call void @_ZN7Imf_3_49InputFileC1EPKci(ptr noundef nonnull align 8 dereferenceable(32) %2, ptr noundef %7, i32 noundef %8)
  call void @llvm.lifetime.start.p0(i64 56, ptr %3) #3
  %9 = invoke noundef nonnull align 8 dereferenceable(49) ptr @_ZNK7Imf_3_49InputFile6headerEv(ptr noundef nonnull align 8 dereferenceable(32) %2)
          to label %10 unwind label %14

10:                                               ; preds = %0
  invoke void @_ZN7Imf_3_46HeaderC1ERKS0_(ptr noundef nonnull align 8 dereferenceable(49) %3, ptr noundef nonnull align 8 dereferenceable(49) %9)
          to label %11 unwind label %14

11:                                               ; preds = %10
  call void @llvm.lifetime.start.p0(i64 16, ptr %6) #3
  %12 = getelementptr inbounds [1 x i8], ptr %1, i64 0, i64 0
  invoke void @_ZN7Imf_3_410OutputFileC1EPKcRKNS_6HeaderEi(ptr noundef nonnull align 8 dereferenceable(16) %6, ptr noundef %12, ptr noundef nonnull align 8 dereferenceable(49) %3, i32 noundef 2)
          to label %13 unwind label %18

13:                                               ; preds = %11
  call void @_ZN7Imf_3_410OutputFileD1Ev(ptr noundef nonnull align 8 dereferenceable(16) %6) #3
  call void @llvm.lifetime.end.p0(i64 16, ptr %6) #3
  call void @_ZN7Imf_3_46HeaderD1Ev(ptr noundef nonnull align 8 dereferenceable(49) %3) #3
  call void @llvm.lifetime.end.p0(i64 56, ptr %3) #3
  call void @_ZN7Imf_3_49InputFileD2Ev(ptr noundef nonnull align 8 dereferenceable(32) %2) #3
  call void @llvm.lifetime.end.p0(i64 32, ptr %2) #3
  call void @llvm.lifetime.end.p0(i64 1, ptr %1) #3
  ret void

14:                                               ; preds = %10, %0
  %15 = landingpad { ptr, i32 }
          cleanup
  %16 = extractvalue { ptr, i32 } %15, 0
  store ptr %16, ptr %4, align 8
  %17 = extractvalue { ptr, i32 } %15, 1
  store i32 %17, ptr %5, align 4
  br label %22

18:                                               ; preds = %11
  %19 = landingpad { ptr, i32 }
          cleanup
  %20 = extractvalue { ptr, i32 } %19, 0
  store ptr %20, ptr %4, align 8
  %21 = extractvalue { ptr, i32 } %19, 1
  store i32 %21, ptr %5, align 4
  call void @llvm.lifetime.end.p0(i64 16, ptr %6) #3
  call void @_ZN7Imf_3_46HeaderD1Ev(ptr noundef nonnull align 8 dereferenceable(49) %3) #3
  br label %22

22:                                               ; preds = %18, %14
  call void @llvm.lifetime.end.p0(i64 56, ptr %3) #3
  call void @_ZN7Imf_3_49InputFileD2Ev(ptr noundef nonnull align 8 dereferenceable(32) %2) #3
  call void @llvm.lifetime.end.p0(i64 32, ptr %2) #3
  call void @llvm.lifetime.end.p0(i64 1, ptr %1) #3
  br label %23

23:                                               ; preds = %22
  %24 = load ptr, ptr %4, align 8
  %25 = load i32, ptr %5, align 4
  %26 = insertvalue { ptr, i32 } poison, ptr %24, 0
  %27 = insertvalue { ptr, i32 } %26, i32 %25, 1
  resume { ptr, i32 } %27
}