; Function Attrs: mustprogress uwtable
define dso_local void @_Z14multithreadingv() local_unnamed_addr #8 personality ptr @__gxx_personality_v0 {
  %1 = alloca [1 x i8], align 1
  %2 = alloca %"class.Imf_3_4::InputFile", align 8
  %3 = alloca %"class.Imf_3_4::Header", align 8
  %4 = alloca %"class.Imf_3_4::OutputFile", align 8
  call void @llvm.lifetime.start.p0(i64 1, ptr nonnull %1) #36
  store i8 0, ptr %1, align 1
  tail call void @_ZN7Imf_3_420setGlobalThreadCountEi(i32 noundef 4)
  call void @llvm.lifetime.start.p0(i64 32, ptr nonnull %2) #36
  %5 = tail call noundef i32 @_ZN7Imf_3_417globalThreadCountEv()
  call void @_ZN7Imf_3_49InputFileC1EPKci(ptr noundef nonnull align 8 dereferenceable(32) %2, ptr noundef nonnull %1, i32 noundef %5)
  call void @llvm.lifetime.start.p0(i64 56, ptr nonnull %3) #36
  %6 = invoke noundef nonnull align 8 dereferenceable(49) ptr @_ZNK7Imf_3_49InputFile6headerEv(ptr noundef nonnull align 8 dereferenceable(32) %2)
          to label %7 unwind label %56

7:                                                ; preds = %0
  invoke void @_ZN7Imf_3_46HeaderC1ERKS0_(ptr noundef nonnull align 8 dereferenceable(49) %3, ptr noundef nonnull align 8 dereferenceable(49) %6)
          to label %8 unwind label %56

8:                                                ; preds = %7
  call void @llvm.lifetime.start.p0(i64 16, ptr nonnull %4) #36
  invoke void @_ZN7Imf_3_410OutputFileC1EPKcRKNS_6HeaderEi(ptr noundef nonnull align 8 dereferenceable(16) %4, ptr noundef nonnull %1, ptr noundef nonnull align 8 dereferenceable(49) %3, i32 noundef 2)
          to label %9 unwind label %58

9:                                                ; preds = %8
  call void @_ZN7Imf_3_410OutputFileD1Ev(ptr noundef nonnull align 8 dereferenceable(16) %4) #36
  call void @llvm.lifetime.end.p0(i64 16, ptr nonnull %4) #36
  call void @_ZN7Imf_3_46HeaderD1Ev(ptr noundef nonnull align 8 dereferenceable(49) %3) #36
  call void @llvm.lifetime.end.p0(i64 56, ptr nonnull %3) #36
  %10 = getelementptr inbounds nuw i8, ptr %2, i64 24
  %11 = load ptr, ptr %10, align 8, !tbaa !100
  %.not.i.i.i = icmp eq ptr %11, null
  br i1 %.not.i.i.i, label %_ZNSt12__shared_ptrIN7Imf_3_49InputFile4DataELN9__gnu_cxx12_Lock_policyE2EED2Ev.exit.i, label %12

12:                                               ; preds = %9
  %13 = getelementptr inbounds nuw i8, ptr %11, i64 8
  %14 = load atomic i64, ptr %13 acquire, align 8
  %15 = icmp eq i64 %14, 4294967297
  %16 = trunc i64 %14 to i32
  br i1 %15, label %17, label %25

17:                                               ; preds = %12
  store i32 0, ptr %13, align 8, !tbaa !103
  %18 = getelementptr inbounds nuw i8, ptr %11, i64 12
  store i32 0, ptr %18, align 4, !tbaa !105
  %19 = load ptr, ptr %11, align 8, !tbaa !15
  %20 = getelementptr inbounds nuw i8, ptr %19, i64 16
  %21 = load ptr, ptr %20, align 8
  call void %21(ptr noundef nonnull align 8 dereferenceable(16) %11) #36
  %22 = load ptr, ptr %11, align 8, !tbaa !15
  %23 = getelementptr inbounds nuw i8, ptr %22, i64 24
  %24 = load ptr, ptr %23, align 8
  call void %24(ptr noundef nonnull align 8 dereferenceable(16) %11) #36
  br label %_ZNSt12__shared_ptrIN7Imf_3_49InputFile4DataELN9__gnu_cxx12_Lock_policyE2EED2Ev.exit.i

25:                                               ; preds = %12
  %26 = load i8, ptr @__libc_single_threaded, align 1, !tbaa !39
  %.not.i.i.i.i = icmp eq i8 %26, 0
  br i1 %.not.i.i.i.i, label %29, label %27

27:                                               ; preds = %25
  %28 = add nsw i32 %16, -1
  store i32 %28, ptr %13, align 4, !tbaa !59
  br label %_ZN9__gnu_cxx27__exchange_and_add_dispatchEPii.exit.i.i.i.i

29:                                               ; preds = %25
  %30 = atomicrmw volatile add ptr %13, i32 -1 acq_rel, align 4
  br label %_ZN9__gnu_cxx27__exchange_and_add_dispatchEPii.exit.i.i.i.i

_ZN9__gnu_cxx27__exchange_and_add_dispatchEPii.exit.i.i.i.i: ; preds = %29, %27
  %.0.i.i.i.i.i = phi i32 [ %16, %27 ], [ %30, %29 ]
  %31 = icmp eq i32 %.0.i.i.i.i.i, 1
  br i1 %31, label %32, label %_ZNSt12__shared_ptrIN7Imf_3_49InputFile4DataELN9__gnu_cxx12_Lock_policyE2EED2Ev.exit.i, !prof !106

32:                                               ; preds = %_ZN9__gnu_cxx27__exchange_and_add_dispatchEPii.exit.i.i.i.i
  call void @_ZNSt16_Sp_counted_baseILN9__gnu_cxx12_Lock_policyE2EE24_M_release_last_use_coldEv(ptr noundef nonnull align 8 dereferenceable(16) %11) #36
  br label %_ZNSt12__shared_ptrIN7Imf_3_49InputFile4DataELN9__gnu_cxx12_Lock_policyE2EED2Ev.exit.i

_ZNSt12__shared_ptrIN7Imf_3_49InputFile4DataELN9__gnu_cxx12_Lock_policyE2EED2Ev.exit.i: ; preds = %32, %_ZN9__gnu_cxx27__exchange_and_add_dispatchEPii.exit.i.i.i.i, %17, %9
  %33 = getelementptr inbounds nuw i8, ptr %2, i64 8
  %34 = load ptr, ptr %33, align 8, !tbaa !100
  %.not.i.i.i1.i = icmp eq ptr %34, null
  br i1 %.not.i.i.i1.i, label %_ZN7Imf_3_49InputFileD2Ev.exit, label %35

35:                                               ; preds = %_ZNSt12__shared_ptrIN7Imf_3_49InputFile4DataELN9__gnu_cxx12_Lock_policyE2EED2Ev.exit.i
  %36 = getelementptr inbounds nuw i8, ptr %34, i64 8
  %37 = load atomic i64, ptr %36 acquire, align 8
  %38 = icmp eq i64 %37, 4294967297
  %39 = trunc i64 %37 to i32
  br i1 %38, label %40, label %48

40:                                               ; preds = %35
  store i32 0, ptr %36, align 8, !tbaa !103
  %41 = getelementptr inbounds nuw i8, ptr %34, i64 12
  store i32 0, ptr %41, align 4, !tbaa !105
  %42 = load ptr, ptr %34, align 8, !tbaa !15
  %43 = getelementptr inbounds nuw i8, ptr %42, i64 16
  %44 = load ptr, ptr %43, align 8
  call void %44(ptr noundef nonnull align 8 dereferenceable(16) %34) #36
  %45 = load ptr, ptr %34, align 8, !tbaa !15
  %46 = getelementptr inbounds nuw i8, ptr %45, i64 24
  %47 = load ptr, ptr %46, align 8
  call void %47(ptr noundef nonnull align 8 dereferenceable(16) %34) #36
  br label %_ZN7Imf_3_49InputFileD2Ev.exit

48:                                               ; preds = %35
  %49 = load i8, ptr @__libc_single_threaded, align 1, !tbaa !39
  %.not.i.i.i.i.i = icmp eq i8 %49, 0
  br i1 %.not.i.i.i.i.i, label %52, label %50

50:                                               ; preds = %48
  %51 = add nsw i32 %39, -1
  store i32 %51, ptr %36, align 4, !tbaa !59
  br label %_ZN9__gnu_cxx27__exchange_and_add_dispatchEPii.exit.i.i.i.i.i

52:                                               ; preds = %48
  %53 = atomicrmw volatile add ptr %36, i32 -1 acq_rel, align 4
  br label %_ZN9__gnu_cxx27__exchange_and_add_dispatchEPii.exit.i.i.i.i.i

_ZN9__gnu_cxx27__exchange_and_add_dispatchEPii.exit.i.i.i.i.i: ; preds = %52, %50
  %.0.i.i.i.i.i.i = phi i32 [ %39, %50 ], [ %53, %52 ]
  %54 = icmp eq i32 %.0.i.i.i.i.i.i, 1
  br i1 %54, label %55, label %_ZN7Imf_3_49InputFileD2Ev.exit, !prof !106

55:                                               ; preds = %_ZN9__gnu_cxx27__exchange_and_add_dispatchEPii.exit.i.i.i.i.i
  call void @_ZNSt16_Sp_counted_baseILN9__gnu_cxx12_Lock_policyE2EE24_M_release_last_use_coldEv(ptr noundef nonnull align 8 dereferenceable(16) %34) #36
  br label %_ZN7Imf_3_49InputFileD2Ev.exit

_ZN7Imf_3_49InputFileD2Ev.exit:                   ; preds = %_ZNSt12__shared_ptrIN7Imf_3_49InputFile4DataELN9__gnu_cxx12_Lock_policyE2EED2Ev.exit.i, %40, %_ZN9__gnu_cxx27__exchange_and_add_dispatchEPii.exit.i.i.i.i.i, %55
  call void @llvm.lifetime.end.p0(i64 32, ptr nonnull %2) #36
  call void @llvm.lifetime.end.p0(i64 1, ptr nonnull %1) #36
  ret void

56:                                               ; preds = %7, %0
  %57 = landingpad { ptr, i32 }
          cleanup
  br label %60

58:                                               ; preds = %8
  %59 = landingpad { ptr, i32 }
          cleanup
  call void @llvm.lifetime.end.p0(i64 16, ptr nonnull %4) #36
  call void @_ZN7Imf_3_46HeaderD1Ev(ptr noundef nonnull align 8 dereferenceable(49) %3) #36
  br label %60

60:                                               ; preds = %58, %56
  %.pn = phi { ptr, i32 } [ %59, %58 ], [ %57, %56 ]
  call void @llvm.lifetime.end.p0(i64 56, ptr nonnull %3) #36
  call void @_ZN7Imf_3_49InputFileD2Ev(ptr noundef nonnull align 8 dereferenceable(32) %2) #36
  call void @llvm.lifetime.end.p0(i64 32, ptr nonnull %2) #36
  call void @llvm.lifetime.end.p0(i64 1, ptr nonnull %1) #36
  resume { ptr, i32 } %.pn
}